; Function Attrs: mustprogress nounwind uwtable
define hidden noundef ptr @_ZN11JfrCHeapObjnaEmRKSt9nothrow_t(i64 noundef %0, ptr nocapture noundef nonnull readnone align 1 dereferenceable(1) %1) local_unnamed_addr #0 align 2 {
  %3 = alloca %class.NativeCallStack, align 8
  %4 = load i32, ptr @_ZN10MemTracker15_tracking_levelE, align 4
  %5 = icmp eq i32 %4, 3
  br i1 %5, label %6, label %7

6:                                                ; preds = %2
  call void @_ZN15NativeCallStackC1Ei(ptr noundef nonnull align 8 dereferenceable(32) %3, i32 noundef 1) #6
  br label %7

7:                                                ; preds = %2, %6
  %8 = call noundef ptr @_Z12AllocateHeapm8MEMFLAGSRK15NativeCallStackN17AllocFailStrategy13AllocFailEnumE(i64 noundef %0, i8 noundef zeroext 16, ptr noundef nonnull align 8 dereferenceable(32) %3, i32 noundef 1) #6
  %9 = icmp eq ptr %8, null
  br i1 %9, label %10, label %_ZL22hook_memory_allocationPKcm.exit

10:                                               ; preds = %7
  %11 = call noundef zeroext i1 @_ZN11JfrRecorder10is_createdEv() #6
  br i1 %11, label %15, label %12

12:                                               ; preds = %10
  %13 = load volatile ptr, ptr getelementptr inbounds (i8, ptr @_ZN16LogTagSetMappingILN6LogTag4typeE64ELS1_156ELS1_0ELS1_0ELS1_0ELS1_0EE7_tagsetE, i64 72), align 8
  %.not.i = icmp eq ptr %13, null
  br i1 %.not.i, label %_ZL22hook_memory_allocationPKcm.exit, label %14

14:                                               ; preds = %12
  call void (ptr, ...) @_ZN7LogImplILN6LogTag4typeE64ELS1_156ELS1_0ELS1_0ELS1_0ELS1_0EE5writeILN8LogLevel4typeE4EEEvPKcz(ptr noundef nonnull @.str, i64 noundef %0)
  br label %_ZL22hook_memory_allocationPKcm.exit

15:                                               ; preds = %10
  call void (ptr, i32, i64, i32, ptr, ...) @_Z23report_vm_out_of_memoryPKcim11VMErrorTypeS0_z(ptr noundef nonnull @.str.5, i32 noundef 84, i64 noundef %0, i32 noundef -536870911, ptr noundef nonnull @.str.6) #7
  unreachable

_ZL22hook_memory_allocationPKcm.exit:             ; preds = %7, %12, %14
  ret ptr %8
}